ARM GAS  /tmp/ccjuFu94.s 			page 1


   1              		.cpu cortex-m3
   2              		.arch armv7-m
   3              		.fpu softvfp
   4              		.eabi_attribute 20, 1
   5              		.eabi_attribute 21, 1
   6              		.eabi_attribute 23, 3
   7              		.eabi_attribute 24, 1
   8              		.eabi_attribute 25, 1
   9              		.eabi_attribute 26, 1
  10              		.eabi_attribute 30, 6
  11              		.eabi_attribute 34, 1
  12              		.eabi_attribute 18, 4
  13              		.file	"bshal_i2cm_stm32.c"
  14              		.text
  15              	.Ltext0:
  16              		.cfi_sections	.debug_frame
  17              		.file 1 "../../../lib/libhalglue/bshal/stm32/bshal_i2cm_stm32.c"
  18              		.section	.text.bshal_stm32_i2cm_send,"ax",%progbits
  19              		.align	1
  20              		.global	bshal_stm32_i2cm_send
  21              		.syntax unified
  22              		.thumb
  23              		.thumb_func
  25              	bshal_stm32_i2cm_send:
  26              	.LFB67:
   1:../../../lib/libhalglue/bshal/stm32/bshal_i2cm_stm32.c **** /*
   2:../../../lib/libhalglue/bshal/stm32/bshal_i2cm_stm32.c ****  * bshal_i2cm_stm32.c
   3:../../../lib/libhalglue/bshal/stm32/bshal_i2cm_stm32.c ****  *
   4:../../../lib/libhalglue/bshal/stm32/bshal_i2cm_stm32.c ****  *  Created on: 11 feb. 2022
   5:../../../lib/libhalglue/bshal/stm32/bshal_i2cm_stm32.c ****  *      Author: andre
   6:../../../lib/libhalglue/bshal/stm32/bshal_i2cm_stm32.c ****  */
   7:../../../lib/libhalglue/bshal/stm32/bshal_i2cm_stm32.c **** 
   8:../../../lib/libhalglue/bshal/stm32/bshal_i2cm_stm32.c **** 
   9:../../../lib/libhalglue/bshal/stm32/bshal_i2cm_stm32.c **** #include "bshal_i2cm_stm32.h"
  10:../../../lib/libhalglue/bshal/stm32/bshal_i2cm_stm32.c **** 
  11:../../../lib/libhalglue/bshal/stm32/bshal_i2cm_stm32.c **** int bshal_stm32_i2cm_send(void *drv_specific, uint8_t address, void *p_data,
  12:../../../lib/libhalglue/bshal/stm32/bshal_i2cm_stm32.c **** 		uint8_t length, bool nostop) {
  27              		.loc 1 12 32
  28              		.cfi_startproc
  29              		@ args = 4, pretend = 0, frame = 16
  30              		@ frame_needed = 1, uses_anonymous_args = 0
  31 0000 80B5     		push	{r7, lr}
  32              		.cfi_def_cfa_offset 8
  33              		.cfi_offset 7, -8
  34              		.cfi_offset 14, -4
  35 0002 86B0     		sub	sp, sp, #24
  36              		.cfi_def_cfa_offset 32
  37 0004 02AF     		add	r7, sp, #8
  38              		.cfi_def_cfa 7, 24
  39 0006 F860     		str	r0, [r7, #12]
  40 0008 7A60     		str	r2, [r7, #4]
  41 000a 1A46     		mov	r2, r3
  42 000c 0B46     		mov	r3, r1
  43 000e FB72     		strb	r3, [r7, #11]
  44 0010 1346     		mov	r3, r2
  45 0012 BB72     		strb	r3, [r7, #10]
  13:../../../lib/libhalglue/bshal/stm32/bshal_i2cm_stm32.c **** 	return HAL_I2C_Master_Transmit(drv_specific, address << 1, p_data, length,
ARM GAS  /tmp/ccjuFu94.s 			page 2


  46              		.loc 1 13 9
  47 0014 FB7A     		ldrb	r3, [r7, #11]	@ zero_extendqisi2
  48 0016 9BB2     		uxth	r3, r3
  49 0018 5B00     		lsls	r3, r3, #1
  50 001a 99B2     		uxth	r1, r3
  51 001c BB7A     		ldrb	r3, [r7, #10]	@ zero_extendqisi2
  52 001e 9BB2     		uxth	r3, r3
  53 0020 4FF47A72 		mov	r2, #1000
  54 0024 0092     		str	r2, [sp]
  55 0026 7A68     		ldr	r2, [r7, #4]
  56 0028 F868     		ldr	r0, [r7, #12]
  57 002a FFF7FEFF 		bl	HAL_I2C_Master_Transmit
  58 002e 0346     		mov	r3, r0
  14:../../../lib/libhalglue/bshal/stm32/bshal_i2cm_stm32.c **** 			1000);
  15:../../../lib/libhalglue/bshal/stm32/bshal_i2cm_stm32.c **** }
  59              		.loc 1 15 1
  60 0030 1846     		mov	r0, r3
  61 0032 1037     		adds	r7, r7, #16
  62              		.cfi_def_cfa_offset 8
  63 0034 BD46     		mov	sp, r7
  64              		.cfi_def_cfa_register 13
  65              		@ sp needed
  66 0036 80BD     		pop	{r7, pc}
  67              		.cfi_endproc
  68              	.LFE67:
  70              		.section	.text.bshal_stm32_i2cm_recv,"ax",%progbits
  71              		.align	1
  72              		.global	bshal_stm32_i2cm_recv
  73              		.syntax unified
  74              		.thumb
  75              		.thumb_func
  77              	bshal_stm32_i2cm_recv:
  78              	.LFB68:
  16:../../../lib/libhalglue/bshal/stm32/bshal_i2cm_stm32.c **** 
  17:../../../lib/libhalglue/bshal/stm32/bshal_i2cm_stm32.c **** int bshal_stm32_i2cm_recv(void *drv_specific, uint8_t address, void *p_data,
  18:../../../lib/libhalglue/bshal/stm32/bshal_i2cm_stm32.c **** 		uint8_t length, bool nostop) {
  79              		.loc 1 18 32
  80              		.cfi_startproc
  81              		@ args = 4, pretend = 0, frame = 24
  82              		@ frame_needed = 1, uses_anonymous_args = 0
  83 0000 80B5     		push	{r7, lr}
  84              		.cfi_def_cfa_offset 8
  85              		.cfi_offset 7, -8
  86              		.cfi_offset 14, -4
  87 0002 88B0     		sub	sp, sp, #32
  88              		.cfi_def_cfa_offset 40
  89 0004 02AF     		add	r7, sp, #8
  90              		.cfi_def_cfa 7, 32
  91 0006 F860     		str	r0, [r7, #12]
  92 0008 7A60     		str	r2, [r7, #4]
  93 000a 1A46     		mov	r2, r3
  94 000c 0B46     		mov	r3, r1
  95 000e FB72     		strb	r3, [r7, #11]
  96 0010 1346     		mov	r3, r2
  97 0012 BB72     		strb	r3, [r7, #10]
  19:../../../lib/libhalglue/bshal/stm32/bshal_i2cm_stm32.c **** 	int result =  HAL_I2C_Master_Receive(drv_specific, address << 1, p_data, length,
  98              		.loc 1 19 16
ARM GAS  /tmp/ccjuFu94.s 			page 3


  99 0014 FB7A     		ldrb	r3, [r7, #11]	@ zero_extendqisi2
 100 0016 9BB2     		uxth	r3, r3
 101 0018 5B00     		lsls	r3, r3, #1
 102 001a 99B2     		uxth	r1, r3
 103 001c BB7A     		ldrb	r3, [r7, #10]	@ zero_extendqisi2
 104 001e 9BB2     		uxth	r3, r3
 105 0020 4FF47A72 		mov	r2, #1000
 106 0024 0092     		str	r2, [sp]
 107 0026 7A68     		ldr	r2, [r7, #4]
 108 0028 F868     		ldr	r0, [r7, #12]
 109 002a FFF7FEFF 		bl	HAL_I2C_Master_Receive
 110 002e 0346     		mov	r3, r0
 111              		.loc 1 19 6
 112 0030 7B61     		str	r3, [r7, #20]
  20:../../../lib/libhalglue/bshal/stm32/bshal_i2cm_stm32.c **** 			1000);
  21:../../../lib/libhalglue/bshal/stm32/bshal_i2cm_stm32.c **** 	if (result) {
  22:../../../lib/libhalglue/bshal/stm32/bshal_i2cm_stm32.c **** 		/*Reset I2C*/
  23:../../../lib/libhalglue/bshal/stm32/bshal_i2cm_stm32.c **** //		I2C_HandleTypeDef *hi2c = drv_specific;
  24:../../../lib/libhalglue/bshal/stm32/bshal_i2cm_stm32.c **** //		hi2c->Instance->CR1 |= I2C_CR1_SWRST;
  25:../../../lib/libhalglue/bshal/stm32/bshal_i2cm_stm32.c **** //		hi2c->Instance->CR1 &= ~I2C_CR1_SWRST;
  26:../../../lib/libhalglue/bshal/stm32/bshal_i2cm_stm32.c **** 		// HAL_I2C_Init(drv_specific); // disable for testing
  27:../../../lib/libhalglue/bshal/stm32/bshal_i2cm_stm32.c **** 	}
  28:../../../lib/libhalglue/bshal/stm32/bshal_i2cm_stm32.c **** 	return result;
 113              		.loc 1 28 9
 114 0032 7B69     		ldr	r3, [r7, #20]
  29:../../../lib/libhalglue/bshal/stm32/bshal_i2cm_stm32.c **** }
 115              		.loc 1 29 1
 116 0034 1846     		mov	r0, r3
 117 0036 1837     		adds	r7, r7, #24
 118              		.cfi_def_cfa_offset 8
 119 0038 BD46     		mov	sp, r7
 120              		.cfi_def_cfa_register 13
 121              		@ sp needed
 122 003a 80BD     		pop	{r7, pc}
 123              		.cfi_endproc
 124              	.LFE68:
 126              		.section	.text.bshal_stm32_i2cm_isok,"ax",%progbits
 127              		.align	1
 128              		.global	bshal_stm32_i2cm_isok
 129              		.syntax unified
 130              		.thumb
 131              		.thumb_func
 133              	bshal_stm32_i2cm_isok:
 134              	.LFB69:
  30:../../../lib/libhalglue/bshal/stm32/bshal_i2cm_stm32.c **** 
  31:../../../lib/libhalglue/bshal/stm32/bshal_i2cm_stm32.c **** int bshal_stm32_i2cm_isok(void *drv_specific, uint8_t address) {
 135              		.loc 1 31 64
 136              		.cfi_startproc
 137              		@ args = 0, pretend = 0, frame = 8
 138              		@ frame_needed = 1, uses_anonymous_args = 0
 139 0000 80B5     		push	{r7, lr}
 140              		.cfi_def_cfa_offset 8
 141              		.cfi_offset 7, -8
 142              		.cfi_offset 14, -4
 143 0002 82B0     		sub	sp, sp, #8
 144              		.cfi_def_cfa_offset 16
 145 0004 00AF     		add	r7, sp, #0
ARM GAS  /tmp/ccjuFu94.s 			page 4


 146              		.cfi_def_cfa_register 7
 147 0006 7860     		str	r0, [r7, #4]
 148 0008 0B46     		mov	r3, r1
 149 000a FB70     		strb	r3, [r7, #3]
  32:../../../lib/libhalglue/bshal/stm32/bshal_i2cm_stm32.c **** 	return HAL_I2C_IsDeviceReady(drv_specific, address << 1, 1, 1000);
 150              		.loc 1 32 9
 151 000c FB78     		ldrb	r3, [r7, #3]	@ zero_extendqisi2
 152 000e 9BB2     		uxth	r3, r3
 153 0010 5B00     		lsls	r3, r3, #1
 154 0012 99B2     		uxth	r1, r3
 155 0014 4FF47A73 		mov	r3, #1000
 156 0018 0122     		movs	r2, #1
 157 001a 7868     		ldr	r0, [r7, #4]
 158 001c FFF7FEFF 		bl	HAL_I2C_IsDeviceReady
 159 0020 0346     		mov	r3, r0
  33:../../../lib/libhalglue/bshal/stm32/bshal_i2cm_stm32.c **** }
 160              		.loc 1 33 1
 161 0022 1846     		mov	r0, r3
 162 0024 0837     		adds	r7, r7, #8
 163              		.cfi_def_cfa_offset 8
 164 0026 BD46     		mov	sp, r7
 165              		.cfi_def_cfa_register 13
 166              		@ sp needed
 167 0028 80BD     		pop	{r7, pc}
 168              		.cfi_endproc
 169              	.LFE69:
 171              		.text
 172              	.Letext0:
 173              		.file 2 "/usr/arm-none-eabi/include/machine/_default_types.h"
 174              		.file 3 "/usr/arm-none-eabi/include/sys/_stdint.h"
 175              		.file 4 "../../../ext/stm32/cmsis_device_f1/Include/stm32f103xb.h"
 176              		.file 5 "../../../ext/stm32/stm32f1xx_hal_driver/Inc/stm32f1xx_hal_def.h"
 177              		.file 6 "../../../ext/stm32/stm32f1xx_hal_driver/Inc/stm32f1xx_hal_dma.h"
 178              		.file 7 "../../../ext/stm32/stm32f1xx_hal_driver/Inc/stm32f1xx_hal_i2c.h"
ARM GAS  /tmp/ccjuFu94.s 			page 5

